; Function Attrs: mustprogress nofree norecurse nosync nounwind willreturn memory(read, argmem: readwrite, inaccessiblemem: none) uwtable
define hidden noundef nonnull align 8 dereferenceable(16) ptr @_ZN10ODDLParser5Value8IteratorppEv(ptr noundef nonnull align 8 captures(ret: address, provenance) dereferenceable(16) %0) local_unnamed_addr #5 align 2 {
  %2 = getelementptr inbounds nuw i8, ptr %0, i64 8
  %3 = load ptr, ptr %2, align 8
  %4 = icmp eq ptr %3, null
  br i1 %4, label %8, label %5

5:                                                ; preds = %1
  %6 = getelementptr inbounds nuw i8, ptr %3, i64 24
  %7 = load ptr, ptr %6, align 8
  store ptr %7, ptr %2, align 8
  br label %8

8:                                                ; preds = %1, %5
  %.0 = phi ptr [ %0, %5 ], [ @_ZN10ODDLParserL3endE, %1 ]
  ret ptr %.0
}